target datalayout = "e-m:e-p270:32:32-p271:32:32-p272:64:64-i64:64-i128:128-f80:128-n8:16:32:64-S128"
target triple = "x86_64-pc-linux-gnu"

%struct.archive_cryptor = type { ptr, ptr, ptr, ptr, ptr, ptr, ptr }
%struct.archive_hmac = type { ptr, ptr, ptr, ptr }
%struct.archive_read = type { %struct.archive, ptr, i32, i64, i64, %struct.archive_read_client, [16 x %struct.archive_read_filter_bidder], ptr, i32, i64, i32, i32, [16 x %struct.archive_format_descriptor], ptr, ptr, ptr, %struct.anon }
%struct.archive = type { i32, i32, ptr, i32, ptr, i32, i32, ptr, %struct.archive_string, ptr, i32, i32, ptr, ptr, i64, i64, i64, i8, i64 }
%struct.archive_string = type { ptr, i64, i64 }
%struct.archive_read_client = type { ptr, ptr, ptr, ptr, ptr, ptr, i32, i32, i64, ptr }
%struct.archive_read_filter_bidder = type { ptr, ptr, ptr }
%struct.archive_format_descriptor = type { ptr, ptr, ptr, ptr, ptr, ptr, ptr, ptr, ptr, ptr, ptr }
%struct.anon = type { ptr, ptr, i32, ptr, ptr }
%struct.zip = type { %struct.archive_string, i64, i64, i64, i64, i32, ptr, %struct.archive_rb_tree, %struct.archive_rb_tree, i64, ptr, i64, i64, i64, i64, ptr, i8, i8, i8, ptr, i64, %struct.z_stream_s, i8, %struct.lzma_stream, i8, %struct.bz_stream, i8, ptr, i8, %struct.IByteIn, i64, %struct.CPpmd8, i8, i8, ptr, ptr, ptr, i32, i32, i8, ptr, ptr, i64, i64, i64, %struct.trad_enc_ctx, i8, %struct.archive_crypto_ctx, i8, ptr, i8, i32, i32, i32, i32, i32, i32, i32, ptr, ptr, ptr }
%struct.archive_rb_tree = type { ptr, ptr }
%struct.z_stream_s = type { ptr, i32, i64, ptr, i32, i64, ptr, ptr, ptr, ptr, ptr, i32, i64, i64 }
%struct.lzma_stream = type { ptr, i64, i64, ptr, i64, i64, ptr, ptr, ptr, ptr, ptr, ptr, i64, i64, i64, i64, i32, i32 }
%struct.bz_stream = type { ptr, i32, i32, i32, ptr, i32, i32, i32, ptr, ptr, ptr, ptr }
%struct.IByteIn = type { ptr, ptr }
%struct.CPpmd8 = type { ptr, ptr, ptr, i32, i32, i32, i32, i32, i32, i32, i32, ptr, ptr, ptr, ptr, ptr, i32, i32, i32, i32, i32, %union.anon, [38 x i8], [128 x i8], [38 x i32], [38 x i32], [256 x i8], [260 x i8], %struct.CPpmd_See, [24 x [32 x %struct.CPpmd_See]], [25 x [64 x i16]] }
%union.anon = type { ptr }
%struct.CPpmd_See = type { i16, i8, i8 }
%struct.trad_enc_ctx = type { [3 x i32] }
%struct.archive_crypto_ctx = type { ptr, ptr, [32 x i8], i32, [16 x i8], [16 x i8], i32 }

@.str.10 = private unnamed_addr constant [4 x i8] c"ZIP\00", align 1
@.str.11 = private unnamed_addr constant [15 x i8] c"Out  of memory\00", align 1
@__archive_cryptor = external constant %struct.archive_cryptor, align 8
@__archive_hmac = external constant %struct.archive_hmac, align 8

; Function Attrs: nounwind uwtable
define internal i32 @archive_read_format_zip_streamable_read_header(ptr noundef %0, ptr noundef %1) #0 {
  %3 = alloca i32, align 4
  %4 = alloca ptr, align 8
  %5 = alloca ptr, align 8
  %6 = alloca ptr, align 8
  %7 = alloca i32, align 4
  %8 = alloca i64, align 8
  %9 = alloca ptr, align 8
  %10 = alloca ptr, align 8
  %11 = alloca i64, align 8
  store ptr %0, ptr %4, align 8, !tbaa !11
  store ptr %1, ptr %5, align 8, !tbaa !66
  call void @llvm.lifetime.start.p0(i64 8, ptr %6) #11
  %12 = load ptr, ptr %4, align 8, !tbaa !11
  %13 = getelementptr inbounds nuw %struct.archive_read, ptr %12, i32 0, i32 0
  %14 = getelementptr inbounds nuw %struct.archive, ptr %13, i32 0, i32 3
  store i32 327680, ptr %14, align 8, !tbaa !67
  %15 = load ptr, ptr %4, align 8, !tbaa !11
  %16 = getelementptr inbounds nuw %struct.archive_read, ptr %15, i32 0, i32 0
  %17 = getelementptr inbounds nuw %struct.archive, ptr %16, i32 0, i32 4
  %18 = load ptr, ptr %17, align 8, !tbaa !68
  %19 = icmp eq ptr %18, null
  br i1 %19, label %20, label %24

20:                                               ; preds = %2
  %21 = load ptr, ptr %4, align 8, !tbaa !11
  %22 = getelementptr inbounds nuw %struct.archive_read, ptr %21, i32 0, i32 0
  %23 = getelementptr inbounds nuw %struct.archive, ptr %22, i32 0, i32 4
  store ptr @.str.10, ptr %23, align 8, !tbaa !68
  br label %24

24:                                               ; preds = %20, %2
  %25 = load ptr, ptr %4, align 8, !tbaa !11
  %26 = getelementptr inbounds nuw %struct.archive_read, ptr %25, i32 0, i32 13
  %27 = load ptr, ptr %26, align 8, !tbaa !47
  %28 = getelementptr inbounds nuw %struct.archive_format_descriptor, ptr %27, i32 0, i32 0
  %29 = load ptr, ptr %28, align 8, !tbaa !60
  store ptr %29, ptr %6, align 8, !tbaa !13
  %30 = load ptr, ptr %6, align 8, !tbaa !13
  %31 = getelementptr inbounds nuw %struct.zip, ptr %30, i32 0, i32 5
  %32 = load i32, ptr %31, align 8, !tbaa !41
  %33 = icmp eq i32 %32, -1
  br i1 %33, label %34, label %37

34:                                               ; preds = %24
  %35 = load ptr, ptr %6, align 8, !tbaa !13
  %36 = getelementptr inbounds nuw %struct.zip, ptr %35, i32 0, i32 5
  store i32 0, ptr %36, align 8, !tbaa !41
  br label %37

37:                                               ; preds = %34, %24
  %38 = load ptr, ptr %6, align 8, !tbaa !13
  %39 = getelementptr inbounds nuw %struct.zip, ptr %38, i32 0, i32 6
  %40 = load ptr, ptr %39, align 8, !tbaa !69
  %41 = icmp eq ptr %40, null
  br i1 %41, label %42, label %54

42:                                               ; preds = %37
  %43 = call noalias ptr @malloc(i64 noundef 144) #14
  %44 = load ptr, ptr %6, align 8, !tbaa !13
  %45 = getelementptr inbounds nuw %struct.zip, ptr %44, i32 0, i32 6
  store ptr %43, ptr %45, align 8, !tbaa !69
  %46 = load ptr, ptr %6, align 8, !tbaa !13
  %47 = getelementptr inbounds nuw %struct.zip, ptr %46, i32 0, i32 6
  %48 = load ptr, ptr %47, align 8, !tbaa !69
  %49 = icmp eq ptr %48, null
  br i1 %49, label %50, label %53

50:                                               ; preds = %42
  %51 = load ptr, ptr %4, align 8, !tbaa !11
  %52 = getelementptr inbounds nuw %struct.archive_read, ptr %51, i32 0, i32 0
  call void (ptr, i32, ptr, ...) @archive_set_error(ptr noundef %52, i32 noundef 12, ptr noundef @.str.11)
  store i32 -30, ptr %3, align 4
  store i32 1, ptr %7, align 4
  br label %194

53:                                               ; preds = %42
  br label %54

54:                                               ; preds = %53, %37
  %55 = load ptr, ptr %6, align 8, !tbaa !13
  %56 = getelementptr inbounds nuw %struct.zip, ptr %55, i32 0, i32 6
  %57 = load ptr, ptr %56, align 8, !tbaa !69
  %58 = load ptr, ptr %6, align 8, !tbaa !13
  %59 = getelementptr inbounds nuw %struct.zip, ptr %58, i32 0, i32 10
  store ptr %57, ptr %59, align 8, !tbaa !70
  %60 = load ptr, ptr %6, align 8, !tbaa !13
  %61 = getelementptr inbounds nuw %struct.zip, ptr %60, i32 0, i32 10
  %62 = load ptr, ptr %61, align 8, !tbaa !70
  call void @llvm.memset.p0.i64(ptr align 8 %62, i8 0, i64 144, i1 false)
  %63 = load ptr, ptr %6, align 8, !tbaa !13
  %64 = getelementptr inbounds nuw %struct.zip, ptr %63, i32 0, i32 48
  %65 = load i8, ptr %64, align 8, !tbaa !71
  %66 = icmp ne i8 %65, 0
  br i1 %66, label %67, label %72

67:                                               ; preds = %54
  %68 = load ptr, ptr getelementptr inbounds nuw (%struct.archive_cryptor, ptr @__archive_cryptor, i32 0, i32 3), align 8, !tbaa !72
  %69 = load ptr, ptr %6, align 8, !tbaa !13
  %70 = getelementptr inbounds nuw %struct.zip, ptr %69, i32 0, i32 47
  %71 = call i32 %68(ptr noundef %70)
  br label %72

72:                                               ; preds = %67, %54
  %73 = load ptr, ptr %6, align 8, !tbaa !13
  %74 = getelementptr inbounds nuw %struct.zip, ptr %73, i32 0, i32 50
  %75 = load i8, ptr %74, align 8, !tbaa !74
  %76 = icmp ne i8 %75, 0
  br i1 %76, label %77, label %81

77:                                               ; preds = %72
  %78 = load ptr, ptr getelementptr inbounds nuw (%struct.archive_hmac, ptr @__archive_hmac, i32 0, i32 3), align 8, !tbaa !75
  %79 = load ptr, ptr %6, align 8, !tbaa !13
  %80 = getelementptr inbounds nuw %struct.zip, ptr %79, i32 0, i32 49
  call void %78(ptr noundef %80)
  br label %81

81:                                               ; preds = %77, %72
  %82 = load ptr, ptr %6, align 8, !tbaa !13
  %83 = getelementptr inbounds nuw %struct.zip, ptr %82, i32 0, i32 50
  store i8 0, ptr %83, align 8, !tbaa !74
  %84 = load ptr, ptr %6, align 8, !tbaa !13
  %85 = getelementptr inbounds nuw %struct.zip, ptr %84, i32 0, i32 48
  store i8 0, ptr %85, align 8, !tbaa !71
  %86 = load ptr, ptr %6, align 8, !tbaa !13
  %87 = getelementptr inbounds nuw %struct.zip, ptr %86, i32 0, i32 46
  store i8 0, ptr %87, align 4, !tbaa !77
  %88 = load ptr, ptr %4, align 8, !tbaa !11
  call void @__archive_read_reset_passphrase(ptr noundef %88)
  %89 = load ptr, ptr %4, align 8, !tbaa !11
  %90 = load ptr, ptr %6, align 8, !tbaa !13
  %91 = getelementptr inbounds nuw %struct.zip, ptr %90, i32 0, i32 9
  %92 = load i64, ptr %91, align 8, !tbaa !78
  %93 = call i64 @__archive_read_consume(ptr noundef %89, i64 noundef %92)
  %94 = load ptr, ptr %6, align 8, !tbaa !13
  %95 = getelementptr inbounds nuw %struct.zip, ptr %94, i32 0, i32 9
  store i64 0, ptr %95, align 8, !tbaa !78
  br label %96

96:                                               ; preds = %193, %81
  call void @llvm.lifetime.start.p0(i64 8, ptr %8) #11
  store i64 0, ptr %8, align 8, !tbaa !43
  call void @llvm.lifetime.start.p0(i64 8, ptr %9) #11
  call void @llvm.lifetime.start.p0(i64 8, ptr %10) #11
  call void @llvm.lifetime.start.p0(i64 8, ptr %11) #11
  %97 = load ptr, ptr %4, align 8, !tbaa !11
  %98 = call ptr @__archive_read_ahead(ptr noundef %97, i64 noundef 4, ptr noundef %11)
  store ptr %98, ptr %9, align 8, !tbaa !45
  %99 = load ptr, ptr %9, align 8, !tbaa !45
  %100 = icmp eq ptr %99, null
  br i1 %100, label %101, label %102

101:                                              ; preds = %96
  store i32 -30, ptr %3, align 4
  store i32 1, ptr %7, align 4
  br label %191

102:                                              ; preds = %96
  %103 = load ptr, ptr %9, align 8, !tbaa !45
  %104 = load i64, ptr %11, align 8, !tbaa !43
  %105 = getelementptr inbounds i8, ptr %103, i64 %104
  store ptr %105, ptr %10, align 8, !tbaa !45
  br label %106

106:                                              ; preds = %182, %102
  %107 = load ptr, ptr %9, align 8, !tbaa !45
  %108 = getelementptr inbounds i8, ptr %107, i64 4
  %109 = load ptr, ptr %10, align 8, !tbaa !45
  %110 = icmp ule ptr %108, %109
  br i1 %110, label %111, label %187

111:                                              ; preds = %106
  %112 = load ptr, ptr %9, align 8, !tbaa !45
  %113 = getelementptr inbounds i8, ptr %112, i64 0
  %114 = load i8, ptr %113, align 1, !tbaa !46
  %115 = sext i8 %114 to i32
  %116 = icmp eq i32 %115, 80
  br i1 %116, label %117, label %182

117:                                              ; preds = %111
  %118 = load ptr, ptr %9, align 8, !tbaa !45
  %119 = getelementptr inbounds i8, ptr %118, i64 1
  %120 = load i8, ptr %119, align 1, !tbaa !46
  %121 = sext i8 %120 to i32
  %122 = icmp eq i32 %121, 75
  br i1 %122, label %123, label %182

123:                                              ; preds = %117
  %124 = load ptr, ptr %9, align 8, !tbaa !45
  %125 = getelementptr inbounds i8, ptr %124, i64 2
  %126 = load i8, ptr %125, align 1, !tbaa !46
  %127 = sext i8 %126 to i32
  %128 = icmp eq i32 %127, 3
  br i1 %128, label %129, label %143

129:                                              ; preds = %123
  %130 = load ptr, ptr %9, align 8, !tbaa !45
  %131 = getelementptr inbounds i8, ptr %130, i64 3
  %132 = load i8, ptr %131, align 1, !tbaa !46
  %133 = sext i8 %132 to i32
  %134 = icmp eq i32 %133, 4
  br i1 %134, label %135, label %143

135:                                              ; preds = %129
  %136 = load ptr, ptr %4, align 8, !tbaa !11
  %137 = load i64, ptr %8, align 8, !tbaa !43
  %138 = call i64 @__archive_read_consume(ptr noundef %136, i64 noundef %137)
  %139 = load ptr, ptr %4, align 8, !tbaa !11
  %140 = load ptr, ptr %5, align 8, !tbaa !66
  %141 = load ptr, ptr %6, align 8, !tbaa !13
  %142 = call i32 @zip_read_local_file_header(ptr noundef %139, ptr noundef %140, ptr noundef %141)
  store i32 %142, ptr %3, align 4
  store i32 1, ptr %7, align 4
  br label %191

143:                                              ; preds = %129, %123
  %144 = load ptr, ptr %9, align 8, !tbaa !45
  %145 = getelementptr inbounds i8, ptr %144, i64 2
  %146 = load i8, ptr %145, align 1, !tbaa !46
  %147 = sext i8 %146 to i32
  %148 = icmp eq i32 %147, 1
  br i1 %148, label %149, label %156

149:                                              ; preds = %143
  %150 = load ptr, ptr %9, align 8, !tbaa !45
  %151 = getelementptr inbounds i8, ptr %150, i64 3
  %152 = load i8, ptr %151, align 1, !tbaa !46
  %153 = sext i8 %152 to i32
  %154 = icmp eq i32 %153, 2
  br i1 %154, label %155, label %156

155:                                              ; preds = %149
  store i32 1, ptr %3, align 4
  store i32 1, ptr %7, align 4
  br label %191

156:                                              ; preds = %149, %143
  %157 = load ptr, ptr %9, align 8, !tbaa !45
  %158 = getelementptr inbounds i8, ptr %157, i64 2
  %159 = load i8, ptr %158, align 1, !tbaa !46
  %160 = sext i8 %159 to i32
  %161 = icmp eq i32 %160, 5
  br i1 %161, label %162, label %168

162:                                              ; preds = %156
  %163 = load ptr, ptr %9, align 8, !tbaa !45
  %164 = getelementptr inbounds i8, ptr %163, i64 3
  %165 = load i8, ptr %164, align 1, !tbaa !46
  %166 = sext i8 %165 to i32
  %167 = icmp eq i32 %166, 6
  br i1 %167, label %180, label %168

168:                                              ; preds = %162, %156
  %169 = load ptr, ptr %9, align 8, !tbaa !45
  %170 = getelementptr inbounds i8, ptr %169, i64 2
  %171 = load i8, ptr %170, align 1, !tbaa !46
  %172 = sext i8 %171 to i32
  %173 = icmp eq i32 %172, 6
  br i1 %173, label %174, label %181

174:                                              ; preds = %168
  %175 = load ptr, ptr %9, align 8, !tbaa !45
  %176 = getelementptr inbounds i8, ptr %175, i64 3
  %177 = load i8, ptr %176, align 1, !tbaa !46
  %178 = sext i8 %177 to i32
  %179 = icmp eq i32 %178, 6
  br i1 %179, label %180, label %181

180:                                              ; preds = %174, %162
  store i32 1, ptr %3, align 4
  store i32 1, ptr %7, align 4
  br label %191

181:                                              ; preds = %174, %168
  br label %182

182:                                              ; preds = %181, %117, %111
  %183 = load ptr, ptr %9, align 8, !tbaa !45
  %184 = getelementptr inbounds nuw i8, ptr %183, i32 1
  store ptr %184, ptr %9, align 8, !tbaa !45
  %185 = load i64, ptr %8, align 8, !tbaa !43
  %186 = add nsw i64 %185, 1
  store i64 %186, ptr %8, align 8, !tbaa !43
  br label %106, !llvm.loop !79

187:                                              ; preds = %106
  %188 = load ptr, ptr %4, align 8, !tbaa !11
  %189 = load i64, ptr %8, align 8, !tbaa !43
  %190 = call i64 @__archive_read_consume(ptr noundef %188, i64 noundef %189)
  store i32 0, ptr %7, align 4
  br label %191

191:                                              ; preds = %187, %180, %155, %135, %101
  call void @llvm.lifetime.end.p0(i64 8, ptr %11) #11
  call void @llvm.lifetime.end.p0(i64 8, ptr %10) #11
  call void @llvm.lifetime.end.p0(i64 8, ptr %9) #11
  call void @llvm.lifetime.end.p0(i64 8, ptr %8) #11
  %192 = load i32, ptr %7, align 4
  switch i32 %192, label %194 [
    i32 0, label %193
  ]

193:                                              ; preds = %191
  br label %96

194:                                              ; preds = %191, %50
  call void @llvm.lifetime.end.p0(i64 8, ptr %6) #11
  %195 = load i32, ptr %3, align 4
  ret i32 %195
}