; Function Attrs: nounwind uwtable
define internal range(i32 -30, 2) i32 @archive_read_format_zip_streamable_read_header(ptr noundef initializes((16, 20)) %0, ptr noundef %1) #0 {
  %3 = alloca i64, align 8
  %4 = getelementptr inbounds nuw i8, ptr %0, i64 16
  store i32 327680, ptr %4, align 8, !tbaa !57
  %5 = getelementptr inbounds nuw i8, ptr %0, i64 24
  %6 = load ptr, ptr %5, align 8, !tbaa !58
  %7 = icmp eq ptr %6, null
  br i1 %7, label %8, label %9

8:                                                ; preds = %2
  store ptr @.str.10, ptr %5, align 8, !tbaa !58
  br label %9

9:                                                ; preds = %8, %2
  %10 = getelementptr inbounds nuw i8, ptr %0, i64 2072
  %11 = load ptr, ptr %10, align 8, !tbaa !37
  %12 = load ptr, ptr %11, align 8, !tbaa !50
  %13 = getelementptr inbounds nuw i8, ptr %12, i64 56
  %14 = load i32, ptr %13, align 8, !tbaa !4
  %15 = icmp eq i32 %14, -1
  br i1 %15, label %16, label %17

16:                                               ; preds = %9
  store i32 0, ptr %13, align 8, !tbaa !4
  br label %17

17:                                               ; preds = %16, %9
  %18 = getelementptr inbounds nuw i8, ptr %12, i64 64
  %19 = load ptr, ptr %18, align 8, !tbaa !59
  %20 = icmp eq ptr %19, null
  br i1 %20, label %21, label %25

21:                                               ; preds = %17
  %22 = tail call noalias dereferenceable_or_null(144) ptr @malloc(i64 noundef 144) #24
  store ptr %22, ptr %18, align 8, !tbaa !59
  %23 = icmp eq ptr %22, null
  br i1 %23, label %24, label %25

24:                                               ; preds = %21
  tail call void (ptr, i32, ptr, ...) @archive_set_error(ptr noundef nonnull %0, i32 noundef 12, ptr noundef nonnull @.str.11) #21
  br label %84

25:                                               ; preds = %21, %17
  %26 = phi ptr [ %22, %21 ], [ %19, %17 ]
  %27 = getelementptr inbounds nuw i8, ptr %12, i64 112
  store ptr %26, ptr %27, align 8, !tbaa !60
  tail call void @llvm.memset.p0.i64(ptr noundef nonnull align 8 dereferenceable(144) %26, i8 0, i64 144, i1 false)
  %28 = getelementptr inbounds nuw i8, ptr %12, i64 8160
  %29 = load i8, ptr %28, align 8, !tbaa !61
  %.not = icmp eq i8 %29, 0
  br i1 %.not, label %34, label %30

30:                                               ; preds = %25
  %31 = load ptr, ptr getelementptr inbounds nuw (i8, ptr @__archive_cryptor, i64 24), align 8, !tbaa !62
  %32 = getelementptr inbounds nuw i8, ptr %12, i64 8072
  %33 = tail call i32 %31(ptr noundef nonnull %32) #21
  br label %34

34:                                               ; preds = %30, %25
  %35 = getelementptr inbounds nuw i8, ptr %12, i64 8176
  %36 = load i8, ptr %35, align 8, !tbaa !64
  %.not53 = icmp eq i8 %36, 0
  br i1 %.not53, label %40, label %37

37:                                               ; preds = %34
  %38 = load ptr, ptr getelementptr inbounds nuw (i8, ptr @__archive_hmac, i64 24), align 8, !tbaa !65
  %39 = getelementptr inbounds nuw i8, ptr %12, i64 8168
  tail call void %38(ptr noundef nonnull %39) #21
  br label %40

40:                                               ; preds = %37, %34
  store i8 0, ptr %35, align 8, !tbaa !64
  store i8 0, ptr %28, align 8, !tbaa !61
  %41 = getelementptr inbounds nuw i8, ptr %12, i64 8068
  store i8 0, ptr %41, align 4, !tbaa !67
  tail call void @__archive_read_reset_passphrase(ptr noundef nonnull %0) #21
  %42 = getelementptr inbounds nuw i8, ptr %12, i64 104
  %43 = load i64, ptr %42, align 8, !tbaa !68
  %44 = tail call i64 @__archive_read_consume(ptr noundef nonnull %0, i64 noundef %43) #21
  store i64 0, ptr %42, align 8, !tbaa !68
  call void @llvm.lifetime.start.p0(i64 8, ptr nonnull %3) #21
  %45 = call ptr @__archive_read_ahead(ptr noundef nonnull %0, i64 noundef 4, ptr noundef nonnull %3) #21
  %46 = icmp eq ptr %45, null
  br i1 %46, label %.thread59, label %.lr.ph69

.lr.ph69:                                         ; preds = %40, %._crit_edge
  %47 = phi ptr [ %82, %._crit_edge ], [ %45, %40 ]
  %48 = load i64, ptr %3, align 8, !tbaa !69
  %49 = getelementptr inbounds i8, ptr %47, i64 %48
  %.not5465 = icmp slt i64 %48, 4
  br i1 %.not5465, label %._crit_edge, label %.lr.ph

.lr.ph:                                           ; preds = %.lr.ph69, %.thread57
  %.04967 = phi ptr [ %78, %.thread57 ], [ %47, %.lr.ph69 ]
  %.05066 = phi i64 [ %79, %.thread57 ], [ 0, %.lr.ph69 ]
  %50 = load i8, ptr %.04967, align 1, !tbaa !36
  %51 = icmp eq i8 %50, 80
  br i1 %51, label %52, label %.thread57

52:                                               ; preds = %.lr.ph
  %53 = getelementptr inbounds nuw i8, ptr %.04967, i64 1
  %54 = load i8, ptr %53, align 1, !tbaa !36
  %55 = icmp eq i8 %54, 75
  br i1 %55, label %56, label %.thread57

56:                                               ; preds = %52
  %57 = getelementptr inbounds nuw i8, ptr %.04967, i64 2
  %58 = load i8, ptr %57, align 1, !tbaa !36
  switch i8 %58, label %.thread57 [
    i8 3, label %59
    i8 1, label %66
    i8 5, label %70
    i8 6, label %74
  ]

59:                                               ; preds = %56
  %60 = getelementptr inbounds nuw i8, ptr %.04967, i64 3
  %61 = load i8, ptr %60, align 1, !tbaa !36
  %62 = icmp eq i8 %61, 4
  br i1 %62, label %63, label %.thread57

63:                                               ; preds = %59
  %64 = call i64 @__archive_read_consume(ptr noundef nonnull %0, i64 noundef %.05066) #21
  %65 = call fastcc i32 @zip_read_local_file_header(ptr noundef nonnull %0, ptr noundef %1, ptr noundef %12)
  br label %.thread59

66:                                               ; preds = %56
  %67 = getelementptr inbounds nuw i8, ptr %.04967, i64 3
  %68 = load i8, ptr %67, align 1, !tbaa !36
  %69 = icmp eq i8 %68, 2
  br i1 %69, label %.thread59, label %.thread57

70:                                               ; preds = %56
  %71 = getelementptr inbounds nuw i8, ptr %.04967, i64 3
  %72 = load i8, ptr %71, align 1, !tbaa !36
  %73 = icmp eq i8 %72, 6
  br i1 %73, label %.thread59, label %.thread57

74:                                               ; preds = %56
  %75 = getelementptr inbounds nuw i8, ptr %.04967, i64 3
  %76 = load i8, ptr %75, align 1, !tbaa !36
  %77 = icmp eq i8 %76, 6
  br i1 %77, label %.thread59, label %.thread57

.thread57:                                        ; preds = %56, %59, %66, %70, %74, %52, %.lr.ph
  %78 = getelementptr inbounds nuw i8, ptr %.04967, i64 1
  %79 = add nuw nsw i64 %.05066, 1
  %80 = getelementptr inbounds nuw i8, ptr %.04967, i64 5
  %.not54 = icmp ugt ptr %80, %49
  br i1 %.not54, label %._crit_edge, label %.lr.ph, !llvm.loop !70

.thread59:                                        ; preds = %._crit_edge, %66, %74, %70, %40, %63
  %.2.ph = phi i32 [ %65, %63 ], [ -30, %40 ], [ 1, %70 ], [ 1, %74 ], [ 1, %66 ], [ -30, %._crit_edge ]
  call void @llvm.lifetime.end.p0(i64 8, ptr nonnull %3) #21
  br label %84

._crit_edge:                                      ; preds = %.thread57, %.lr.ph69
  %.050.lcssa = phi i64 [ 0, %.lr.ph69 ], [ %79, %.thread57 ]
  %81 = call i64 @__archive_read_consume(ptr noundef nonnull %0, i64 noundef %.050.lcssa) #21
  call void @llvm.lifetime.end.p0(i64 8, ptr nonnull %3) #21
  call void @llvm.lifetime.start.p0(i64 8, ptr nonnull %3) #21
  %82 = call ptr @__archive_read_ahead(ptr noundef nonnull %0, i64 noundef 4, ptr noundef nonnull %3) #21
  %83 = icmp eq ptr %82, null
  br i1 %83, label %.thread59, label %.lr.ph69

84:                                               ; preds = %.thread59, %24
  %.0 = phi i32 [ -30, %24 ], [ %.2.ph, %.thread59 ]
  ret i32 %.0
}